target datalayout = "e-m:e-p270:32:32-p271:32:32-p272:64:64-i64:64-i128:128-f80:128-n8:16:32:64-S128"
target triple = "x86_64-unknown-linux-gnu"

%struct.btIndexedMesh = type <{ i32, [4 x i8], ptr, i32, i32, ptr, i32, i32, i32, [4 x i8] }>
%class.btTriangleIndexVertexArray = type <{ %class.btStridingMeshInterface, %class.btAlignedObjectArray, [2 x i32], i32, %class.btVector3, %class.btVector3, [4 x i8] }>
%class.btStridingMeshInterface = type { ptr, %class.btVector3 }
%class.btAlignedObjectArray = type <{ %class.btAlignedAllocator, [3 x i8], i32, i32, [4 x i8], ptr, i8, [7 x i8] }>
%class.btAlignedAllocator = type { i8 }
%class.btVector3 = type { [4 x float] }

@_ZTV23btStridingMeshInterface = external unnamed_addr constant { [17 x ptr] }, align 8

; Function Attrs: mustprogress nounwind uwtable
define linkonce_odr dso_local void @_ZN20btAlignedObjectArrayI13btIndexedMeshE4initEv(ptr noundef nonnull align 8 dereferenceable(25) %this) #1 comdat align 2 {
entry:
  %this.addr = alloca ptr, align 8
  store ptr %this, ptr %this.addr, align 8
  %this1 = load ptr, ptr %this.addr, align 8
  %m_ownsMemory = getelementptr inbounds %class.btAlignedObjectArray, ptr %this1, i32 0, i32 6
  store i8 1, ptr %m_ownsMemory, align 8
  %m_data = getelementptr inbounds %class.btAlignedObjectArray, ptr %this1, i32 0, i32 5
  store ptr null, ptr %m_data, align 8
  %m_size = getelementptr inbounds %class.btAlignedObjectArray, ptr %this1, i32 0, i32 2
  store i32 0, ptr %m_size, align 4
  %m_capacity = getelementptr inbounds %class.btAlignedObjectArray, ptr %this1, i32 0, i32 3
  store i32 0, ptr %m_capacity, align 8
  ret void
}

; Function Attrs: mustprogress nounwind uwtable
define linkonce_odr dso_local void @_ZN18btAlignedAllocatorI13btIndexedMeshLj16EEC2Ev(ptr noundef nonnull align 1 dereferenceable(1) %this) unnamed_addr #1 comdat align 2 {
entry:
  %this.addr = alloca ptr, align 8
  store ptr %this, ptr %this.addr, align 8
  ret void
}

; Function Attrs: mustprogress nounwind uwtable
define linkonce_odr dso_local void @_ZN9btVector3C2ERKfS1_S1_(ptr noundef nonnull align 4 dereferenceable(16) %this, ptr noundef nonnull align 4 dereferenceable(4) %_x, ptr noundef nonnull align 4 dereferenceable(4) %_y, ptr noundef nonnull align 4 dereferenceable(4) %_z) unnamed_addr #1 comdat align 2 {
entry:
  %this.addr = alloca ptr, align 8
  %_x.addr = alloca ptr, align 8
  %_y.addr = alloca ptr, align 8
  %_z.addr = alloca ptr, align 8
  store ptr %this, ptr %this.addr, align 8
  store ptr %_x, ptr %_x.addr, align 8
  store ptr %_y, ptr %_y.addr, align 8
  store ptr %_z, ptr %_z.addr, align 8
  %this1 = load ptr, ptr %this.addr, align 8
  %0 = load ptr, ptr %_x.addr, align 8
  %1 = load float, ptr %0, align 4
  %m_floats = getelementptr inbounds %class.btVector3, ptr %this1, i32 0, i32 0
  %arrayidx = getelementptr inbounds [4 x float], ptr %m_floats, i64 0, i64 0
  store float %1, ptr %arrayidx, align 4
  %2 = load ptr, ptr %_y.addr, align 8
  %3 = load float, ptr %2, align 4
  %m_floats2 = getelementptr inbounds %class.btVector3, ptr %this1, i32 0, i32 0
  %arrayidx3 = getelementptr inbounds [4 x float], ptr %m_floats2, i64 0, i64 1
  store float %3, ptr %arrayidx3, align 4
  %4 = load ptr, ptr %_z.addr, align 8
  %5 = load float, ptr %4, align 4
  %m_floats4 = getelementptr inbounds %class.btVector3, ptr %this1, i32 0, i32 0
  %arrayidx5 = getelementptr inbounds [4 x float], ptr %m_floats4, i64 0, i64 2
  store float %5, ptr %arrayidx5, align 4
  %m_floats6 = getelementptr inbounds %class.btVector3, ptr %this1, i32 0, i32 0
  %arrayidx7 = getelementptr inbounds [4 x float], ptr %m_floats6, i64 0, i64 3
  store float 0.000000e+00, ptr %arrayidx7, align 4
  ret void
}

; Function Attrs: mustprogress nounwind uwtable
define linkonce_odr dso_local void @_ZN13btIndexedMeshC2Ev(ptr noundef nonnull align 8 dereferenceable(44) %this) unnamed_addr #1 comdat align 2 {
entry:
  %this.addr = alloca ptr, align 8
  store ptr %this, ptr %this.addr, align 8
  %this1 = load ptr, ptr %this.addr, align 8
  %m_indexType = getelementptr inbounds %struct.btIndexedMesh, ptr %this1, i32 0, i32 7
  store i32 2, ptr %m_indexType, align 4
  %m_vertexType = getelementptr inbounds %struct.btIndexedMesh, ptr %this1, i32 0, i32 8
  store i32 0, ptr %m_vertexType, align 8
  ret void
}

; Function Attrs: mustprogress nounwind uwtable
define linkonce_odr dso_local void @_ZN9btVector3C2Ev(ptr noundef nonnull align 4 dereferenceable(16) %this) unnamed_addr #1 comdat align 2 {
entry:
  %this.addr = alloca ptr, align 8
  store ptr %this, ptr %this.addr, align 8
  ret void
}

; Function Attrs: mustprogress uwtable
define linkonce_odr dso_local void @_ZN20btAlignedObjectArrayI13btIndexedMeshEC2Ev(ptr noundef nonnull align 8 dereferenceable(25) %this) unnamed_addr #2 comdat align 2 {
entry:
  %this.addr = alloca ptr, align 8
  store ptr %this, ptr %this.addr, align 8
  %this1 = load ptr, ptr %this.addr, align 8
  %m_allocator = getelementptr inbounds %class.btAlignedObjectArray, ptr %this1, i32 0, i32 0
  call void @_ZN18btAlignedAllocatorI13btIndexedMeshLj16EEC2Ev(ptr noundef nonnull align 1 dereferenceable(1) %m_allocator)
  call void @_ZN20btAlignedObjectArrayI13btIndexedMeshE4initEv(ptr noundef nonnull align 8 dereferenceable(25) %this1)
  ret void
}

; Function Attrs: mustprogress uwtable
define linkonce_odr dso_local void @_ZN23btStridingMeshInterfaceC2Ev(ptr noundef nonnull align 8 dereferenceable(24) %this) unnamed_addr #2 comdat align 2 {
entry:
  %this.addr = alloca ptr, align 8
  %ref.tmp = alloca float, align 4
  %ref.tmp2 = alloca float, align 4
  %ref.tmp3 = alloca float, align 4
  store ptr %this, ptr %this.addr, align 8
  %this1 = load ptr, ptr %this.addr, align 8
  store ptr getelementptr inbounds ({ [17 x ptr] }, ptr @_ZTV23btStridingMeshInterface, i32 0, i32 0, i32 2), ptr %this1, align 8
  %m_scaling = getelementptr inbounds %class.btStridingMeshInterface, ptr %this1, i32 0, i32 1
  store float 1.000000e+00, ptr %ref.tmp, align 4
  store float 1.000000e+00, ptr %ref.tmp2, align 4
  store float 1.000000e+00, ptr %ref.tmp3, align 4
  call void @_ZN9btVector3C2ERKfS1_S1_(ptr noundef nonnull align 4 dereferenceable(16) %m_scaling, ptr noundef nonnull align 4 dereferenceable(4) %ref.tmp, ptr noundef nonnull align 4 dereferenceable(4) %ref.tmp2, ptr noundef nonnull align 4 dereferenceable(4) %ref.tmp3)
  ret void
}

; Function Attrs: mustprogress uwtable
define dso_local void @_ZN26btTriangleIndexVertexArrayC2EiPiiiPfi(ptr noundef nonnull align 8 dereferenceable(100) %this, i32 noundef %numTriangles, ptr noundef %triangleIndexBase, i32 noundef %triangleIndexStride, i32 noundef %numVertices, ptr noundef %vertexBase, i32 noundef %vertexStride) unnamed_addr #2 align 2 personality ptr @__gxx_personality_v0 {
entry:
  %this.addr = alloca ptr, align 8
  %numTriangles.addr = alloca i32, align 4
  %triangleIndexBase.addr = alloca ptr, align 8
  %triangleIndexStride.addr = alloca i32, align 4
  %numVertices.addr = alloca i32, align 4
  %vertexBase.addr = alloca ptr, align 8
  %vertexStride.addr = alloca i32, align 4
  %exn.slot = alloca ptr, align 8
  %ehselector.slot = alloca i32, align 4
  %mesh = alloca %struct.btIndexedMesh, align 8
  store ptr %this, ptr %this.addr, align 8
  store i32 %numTriangles, ptr %numTriangles.addr, align 4
  store ptr %triangleIndexBase, ptr %triangleIndexBase.addr, align 8
  store i32 %triangleIndexStride, ptr %triangleIndexStride.addr, align 4
  store i32 %numVertices, ptr %numVertices.addr, align 4
  store ptr %vertexBase, ptr %vertexBase.addr, align 8
  store i32 %vertexStride, ptr %vertexStride.addr, align 4
  %this1 = load ptr, ptr %this.addr, align 8
  call void @_ZN23btStridingMeshInterfaceC2Ev(ptr noundef nonnull align 8 dereferenceable(24) %this1)
  store ptr getelementptr inbounds ({ [17 x ptr] }, ptr @_ZTV26btTriangleIndexVertexArray, i32 0, i32 0, i32 2), ptr %this1, align 8
  %m_indexedMeshes = getelementptr inbounds %class.btTriangleIndexVertexArray, ptr %this1, i32 0, i32 1
  invoke void @_ZN20btAlignedObjectArrayI13btIndexedMeshEC2Ev(ptr noundef nonnull align 8 dereferenceable(25) %m_indexedMeshes)
          to label %invoke.cont unwind label %lpad

invoke.cont:                                      ; preds = %entry
  %m_hasAabb = getelementptr inbounds %class.btTriangleIndexVertexArray, ptr %this1, i32 0, i32 3
  store i32 0, ptr %m_hasAabb, align 8
  %m_aabbMin = getelementptr inbounds %class.btTriangleIndexVertexArray, ptr %this1, i32 0, i32 4
  invoke void @_ZN9btVector3C2Ev(ptr noundef nonnull align 4 dereferenceable(16) %m_aabbMin)
          to label %invoke.cont3 unwind label %lpad2

invoke.cont3:                                     ; preds = %invoke.cont
  %m_aabbMax = getelementptr inbounds %class.btTriangleIndexVertexArray, ptr %this1, i32 0, i32 5
  invoke void @_ZN9btVector3C2Ev(ptr noundef nonnull align 4 dereferenceable(16) %m_aabbMax)
          to label %invoke.cont4 unwind label %lpad2

invoke.cont4:                                     ; preds = %invoke.cont3
  invoke void @_ZN13btIndexedMeshC2Ev(ptr noundef nonnull align 8 dereferenceable(44) %mesh)
          to label %invoke.cont5 unwind label %lpad2

invoke.cont5:                                     ; preds = %invoke.cont4
  %0 = load i32, ptr %numTriangles.addr, align 4
  %m_numTriangles = getelementptr inbounds %struct.btIndexedMesh, ptr %mesh, i32 0, i32 0
  store i32 %0, ptr %m_numTriangles, align 8
  %1 = load ptr, ptr %triangleIndexBase.addr, align 8
  %m_triangleIndexBase = getelementptr inbounds %struct.btIndexedMesh, ptr %mesh, i32 0, i32 2
  store ptr %1, ptr %m_triangleIndexBase, align 8
  %2 = load i32, ptr %triangleIndexStride.addr, align 4
  %m_triangleIndexStride = getelementptr inbounds %struct.btIndexedMesh, ptr %mesh, i32 0, i32 3
  store i32 %2, ptr %m_triangleIndexStride, align 8
  %3 = load i32, ptr %numVertices.addr, align 4
  %m_numVertices = getelementptr inbounds %struct.btIndexedMesh, ptr %mesh, i32 0, i32 4
  store i32 %3, ptr %m_numVertices, align 4
  %4 = load ptr, ptr %vertexBase.addr, align 8
  %m_vertexBase = getelementptr inbounds %struct.btIndexedMesh, ptr %mesh, i32 0, i32 5
  store ptr %4, ptr %m_vertexBase, align 8
  %5 = load i32, ptr %vertexStride.addr, align 4
  %m_vertexStride = getelementptr inbounds %struct.btIndexedMesh, ptr %mesh, i32 0, i32 6
  store i32 %5, ptr %m_vertexStride, align 8
  invoke void @_ZN26btTriangleIndexVertexArray14addIndexedMeshERK13btIndexedMesh14PHY_ScalarType(ptr noundef nonnull align 8 dereferenceable(100) %this1, ptr noundef nonnull align 8 dereferenceable(44) %mesh, i32 noundef 2)
          to label %invoke.cont6 unwind label %lpad2

invoke.cont6:                                     ; preds = %invoke.cont5
  ret void

lpad:                                             ; preds = %entry
  %6 = landingpad { ptr, i32 }
          cleanup
  %7 = extractvalue { ptr, i32 } %6, 0
  store ptr %7, ptr %exn.slot, align 8
  %8 = extractvalue { ptr, i32 } %6, 1
  store i32 %8, ptr %ehselector.slot, align 4
  br label %ehcleanup

lpad2:                                            ; preds = %invoke.cont5, %invoke.cont4, %invoke.cont3, %invoke.cont
  %9 = landingpad { ptr, i32 }
          cleanup
  %10 = extractvalue { ptr, i32 } %9, 0
  store ptr %10, ptr %exn.slot, align 8
  %11 = extractvalue { ptr, i32 } %9, 1
  store i32 %11, ptr %ehselector.slot, align 4
  call void @_ZN20btAlignedObjectArrayI13btIndexedMeshED2Ev(ptr noundef nonnull align 8 dereferenceable(25) %m_indexedMeshes) #7
  br label %ehcleanup

ehcleanup:                                        ; preds = %lpad2, %lpad
  call void @_ZN23btStridingMeshInterfaceD2Ev(ptr noundef nonnull align 8 dereferenceable(24) %this1) #7
  br label %eh.resume

eh.resume:                                        ; preds = %ehcleanup
  %exn = load ptr, ptr %exn.slot, align 8
  %sel = load i32, ptr %ehselector.slot, align 4
  %lpad.val = insertvalue { ptr, i32 } poison, ptr %exn, 0
  %lpad.val7 = insertvalue { ptr, i32 } %lpad.val, i32 %sel, 1
  resume { ptr, i32 } %lpad.val7
}