; Function Attrs: mustprogress uwtable
define dso_local void @_ZN26btTriangleIndexVertexArrayC2EiPiiiPfi(ptr noundef nonnull align 8 dereferenceable(100) %this, i32 noundef %numTriangles, ptr noundef %triangleIndexBase, i32 noundef %triangleIndexStride, i32 noundef %numVertices, ptr noundef %vertexBase, i32 noundef %vertexStride) unnamed_addr #0 align 2 personality ptr @__gxx_personality_v0 {
invoke.cont:
  %mesh = alloca %struct.btIndexedMesh, align 8
  %m_scaling.i = getelementptr inbounds i8, ptr %this, i64 8
  store <4 x float> <float 1.000000e+00, float 1.000000e+00, float 1.000000e+00, float 0.000000e+00>, ptr %m_scaling.i, align 8
  store ptr getelementptr inbounds ({ [17 x ptr] }, ptr @_ZTV26btTriangleIndexVertexArray, i64 0, i32 0, i64 2), ptr %this, align 8
  %m_ownsMemory.i.i = getelementptr inbounds i8, ptr %this, i64 48
  store i8 1, ptr %m_ownsMemory.i.i, align 8
  %m_data.i.i = getelementptr inbounds i8, ptr %this, i64 40
  store ptr null, ptr %m_data.i.i, align 8
  %m_size.i.i = getelementptr inbounds i8, ptr %this, i64 28
  store i32 0, ptr %m_size.i.i, align 4
  %m_capacity.i.i = getelementptr inbounds i8, ptr %this, i64 32
  store i32 0, ptr %m_capacity.i.i, align 8
  %m_hasAabb = getelementptr inbounds i8, ptr %this, i64 64
  store i32 0, ptr %m_hasAabb, align 8
  %m_indexType.i = getelementptr inbounds i8, ptr %mesh, i64 36
  store i32 2, ptr %m_indexType.i, align 4
  %m_vertexType.i = getelementptr inbounds i8, ptr %mesh, i64 40
  store i32 0, ptr %m_vertexType.i, align 8
  store i32 %numTriangles, ptr %mesh, align 8
  %m_triangleIndexBase = getelementptr inbounds i8, ptr %mesh, i64 8
  store ptr %triangleIndexBase, ptr %m_triangleIndexBase, align 8
  %m_triangleIndexStride = getelementptr inbounds i8, ptr %mesh, i64 16
  store i32 %triangleIndexStride, ptr %m_triangleIndexStride, align 8
  %m_numVertices = getelementptr inbounds i8, ptr %mesh, i64 20
  store i32 %numVertices, ptr %m_numVertices, align 4
  %m_vertexBase = getelementptr inbounds i8, ptr %mesh, i64 24
  store ptr %vertexBase, ptr %m_vertexBase, align 8
  %m_vertexStride = getelementptr inbounds i8, ptr %mesh, i64 32
  store i32 %vertexStride, ptr %m_vertexStride, align 8
  invoke void @_ZN26btTriangleIndexVertexArray14addIndexedMeshERK13btIndexedMesh14PHY_ScalarType(ptr noundef nonnull align 8 dereferenceable(100) %this, ptr noundef nonnull align 8 dereferenceable(44) %mesh, i32 noundef 2)
          to label %invoke.cont6 unwind label %lpad2

invoke.cont6:                                     ; preds = %invoke.cont
  ret void

lpad2:                                            ; preds = %invoke.cont
  %0 = landingpad { ptr, i32 }
          cleanup
  %m_indexedMeshes = getelementptr inbounds i8, ptr %this, i64 24
  call void @_ZN20btAlignedObjectArrayI13btIndexedMeshED2Ev(ptr noundef nonnull align 8 dereferenceable(25) %m_indexedMeshes) #9
  call void @_ZN23btStridingMeshInterfaceD2Ev(ptr noundef nonnull align 8 dereferenceable(24) %this) #9
  resume { ptr, i32 } %0
}